target datalayout = "e-m:e-p270:32:32-p271:32:32-p272:64:64-i64:64-i128:128-f80:128-n8:16:32:64-S128"
target triple = "x86_64-pc-linux-gnu"

%struct.cimd_parameter_t = type { ptr, ptr, ptr }
%struct._value_string = type { i32, ptr }

@hf_cimd_pcode_indicator = internal global i32 0, align 4
@vals_hdr_PC = internal global [38 x %struct.cimd_parameter_t] zeroinitializer, align 16

; Function Attrs: null_pointer_is_valid sspstrong uwtable
define internal void @dissect_cimd_ud(ptr noundef %0, ptr noundef %1, i32 noundef %2, i32 noundef %3, i32 noundef %4) #0 {
  %6 = alloca ptr, align 8
  %7 = alloca ptr, align 8
  %8 = alloca i32, align 4
  %9 = alloca i32, align 4
  %10 = alloca i32, align 4
  %11 = alloca ptr, align 8
  %12 = alloca ptr, align 8
  %13 = alloca ptr, align 8
  %14 = alloca ptr, align 8
  %15 = alloca i32, align 4
  %16 = alloca i32, align 4
  %17 = alloca i32, align 4
  %18 = alloca [4 x i8], align 1
  store ptr %0, ptr %6, align 8
  store ptr %1, ptr %7, align 8
  store i32 %2, ptr %8, align 4
  store i32 %3, ptr %9, align 4
  store i32 %4, ptr %10, align 4
  call void @llvm.lifetime.start.p0(i64 8, ptr %11) #4
  call void @llvm.lifetime.start.p0(i64 8, ptr %12) #4
  call void @llvm.lifetime.start.p0(i64 8, ptr %13) #4
  call void @llvm.lifetime.start.p0(i64 8, ptr %14) #4
  call void @llvm.lifetime.start.p0(i64 4, ptr %15) #4
  call void @llvm.lifetime.start.p0(i64 4, ptr %16) #4
  call void @llvm.lifetime.start.p0(i64 4, ptr %17) #4
  call void @llvm.lifetime.start.p0(i64 4, ptr %18) #4
  %19 = load ptr, ptr %7, align 8
  %20 = load ptr, ptr %6, align 8
  %21 = load i32, ptr %9, align 4
  %22 = add i32 %21, 1
  %23 = load i32, ptr %10, align 4
  %24 = load i32, ptr %9, align 4
  %25 = add i32 %24, 1
  %26 = sub i32 %23, %25
  %27 = load i32, ptr %8, align 4
  %28 = sext i32 %27 to i64
  %29 = getelementptr [38 x %struct.cimd_parameter_t], ptr @vals_hdr_PC, i64 0, i64 %28
  %30 = getelementptr inbounds nuw %struct.cimd_parameter_t, ptr %29, i32 0, i32 1
  %31 = load ptr, ptr %30, align 8
  %32 = load i32, ptr %31, align 4
  %33 = load i32, ptr %8, align 4
  %34 = sext i32 %33 to i64
  %35 = getelementptr [38 x %struct._value_string], ptr @cimd_vals_PC, i64 0, i64 %34
  %36 = getelementptr inbounds nuw %struct._value_string, ptr %35, i32 0, i32 1
  %37 = load ptr, ptr %36, align 8
  %38 = call ptr @proto_tree_add_subtree(ptr noundef %19, ptr noundef %20, i32 noundef %22, i32 noundef %26, i32 noundef %32, ptr noundef null, ptr noundef %37)
  store ptr %38, ptr %11, align 8
  %39 = load ptr, ptr %11, align 8
  %40 = load i32, ptr @hf_cimd_pcode_indicator, align 4
  %41 = load ptr, ptr %6, align 8
  %42 = load i32, ptr %9, align 4
  %43 = add i32 %42, 1
  %44 = call ptr @proto_tree_add_item(ptr noundef %39, i32 noundef %40, ptr noundef %41, i32 noundef %43, i32 noundef 3, i32 noundef 0)
  %45 = load i32, ptr %9, align 4
  %46 = add i32 %45, 1
  %47 = add i32 %46, 3
  %48 = add i32 %47, 1
  store i32 %48, ptr %16, align 4
  %49 = load i32, ptr %10, align 4
  %50 = load i32, ptr %16, align 4
  %51 = sub i32 %49, %50
  store i32 %51, ptr %17, align 4
  %52 = load ptr, ptr %6, align 8
  %53 = load i32, ptr %16, align 4
  %54 = load i32, ptr %17, align 4
  %55 = call ptr @tvb_get_ptr(ptr noundef %52, i32 noundef %53, i32 noundef %54)
  store ptr %55, ptr %13, align 8
  %56 = call ptr @wmem_packet_scope()
  %57 = load i32, ptr %17, align 4
  %58 = add i32 %57, 1
  %59 = sext i32 %58 to i64
  %60 = call noalias ptr @wmem_strbuf_new_sized(ptr noundef %56, i64 noundef %59)
  store ptr %60, ptr %14, align 8
  store i32 0, ptr %15, align 4
  br label %61

61:                                               ; preds = %118, %5
  %62 = load i32, ptr %15, align 4
  %63 = load i32, ptr %17, align 4
  %64 = icmp slt i32 %62, %63
  br i1 %64, label %65, label %121

65:                                               ; preds = %61
  %66 = load ptr, ptr %13, align 8
  %67 = load i32, ptr %15, align 4
  %68 = sext i32 %67 to i64
  %69 = getelementptr i8, ptr %66, i64 %68
  %70 = load i8, ptr %69, align 1
  %71 = zext i8 %70 to i32
  %72 = icmp eq i32 %71, 95
  br i1 %72, label %73, label %107

73:                                               ; preds = %65
  %74 = load i32, ptr %15, align 4
  %75 = load i32, ptr %17, align 4
  %76 = sub i32 %75, 2
  %77 = icmp slt i32 %74, %76
  br i1 %77, label %78, label %104

78:                                               ; preds = %73
  %79 = load ptr, ptr %13, align 8
  %80 = load i32, ptr %15, align 4
  %81 = add i32 %80, 1
  store i32 %81, ptr %15, align 4
  %82 = sext i32 %80 to i64
  %83 = getelementptr i8, ptr %79, i64 %82
  %84 = load i8, ptr %83, align 1
  %85 = getelementptr [4 x i8], ptr %18, i64 0, i64 0
  store i8 %84, ptr %85, align 1
  %86 = load ptr, ptr %13, align 8
  %87 = load i32, ptr %15, align 4
  %88 = add i32 %87, 1
  store i32 %88, ptr %15, align 4
  %89 = sext i32 %87 to i64
  %90 = getelementptr i8, ptr %86, i64 %89
  %91 = load i8, ptr %90, align 1
  %92 = getelementptr [4 x i8], ptr %18, i64 0, i64 1
  store i8 %91, ptr %92, align 1
  %93 = load ptr, ptr %13, align 8
  %94 = load i32, ptr %15, align 4
  %95 = sext i32 %94 to i64
  %96 = getelementptr i8, ptr %93, i64 %95
  %97 = load i8, ptr %96, align 1
  %98 = getelementptr [4 x i8], ptr %18, i64 0, i64 2
  store i8 %97, ptr %98, align 1
  %99 = getelementptr [4 x i8], ptr %18, i64 0, i64 3
  store i8 0, ptr %99, align 1
  %100 = load ptr, ptr %14, align 8
  %101 = getelementptr inbounds [4 x i8], ptr %18, i64 0, i64 0
  %102 = call i32 @str_to_val(ptr noundef %101, ptr noundef @dissect_cimd_ud.combining_mapping, i32 noundef 255)
  %103 = trunc i32 %102 to i8
  call void @wmem_strbuf_append_c(ptr noundef %100, i8 noundef signext %103)
  br label %106

104:                                              ; preds = %73
  %105 = load ptr, ptr %14, align 8
  call void @wmem_strbuf_append_c(ptr noundef %105, i8 noundef signext -1)
  br label %106

106:                                              ; preds = %104, %78
  br label %117

107:                                              ; preds = %65
  %108 = load ptr, ptr %14, align 8
  %109 = load ptr, ptr %13, align 8
  %110 = load i32, ptr %15, align 4
  %111 = sext i32 %110 to i64
  %112 = getelementptr i8, ptr %109, i64 %111
  %113 = load i8, ptr %112, align 1
  %114 = zext i8 %113 to i64
  %115 = getelementptr [256 x i8], ptr @dissect_cimd_ud.latin_mapping, i64 0, i64 %114
  %116 = load i8, ptr %115, align 1
  call void @wmem_strbuf_append_c(ptr noundef %108, i8 noundef signext %116)
  br label %117

117:                                              ; preds = %107, %106
  br label %118

118:                                              ; preds = %117
  %119 = load i32, ptr %15, align 4
  %120 = add i32 %119, 1
  store i32 %120, ptr %15, align 4
  br label %61, !llvm.loop !11

121:                                              ; preds = %61
  %122 = call ptr @wmem_packet_scope()
  %123 = load ptr, ptr %14, align 8
  %124 = call ptr @wmem_strbuf_get_str(ptr noundef %123)
  %125 = load ptr, ptr %14, align 8
  %126 = call i64 @wmem_strbuf_get_len(ptr noundef %125)
  %127 = trunc i64 %126 to i32
  %128 = call ptr @get_ts_23_038_7bits_string_unpacked(ptr noundef %122, ptr noundef %124, i32 noundef %127)
  store ptr %128, ptr %12, align 8
  %129 = load ptr, ptr %14, align 8
  call void @wmem_strbuf_destroy(ptr noundef %129)
  %130 = load ptr, ptr %11, align 8
  %131 = load i32, ptr %8, align 4
  %132 = sext i32 %131 to i64
  %133 = getelementptr [38 x %struct.cimd_parameter_t], ptr @vals_hdr_PC, i64 0, i64 %132
  %134 = getelementptr inbounds nuw %struct.cimd_parameter_t, ptr %133, i32 0, i32 2
  %135 = load ptr, ptr %134, align 8
  %136 = load i32, ptr %135, align 4
  %137 = load ptr, ptr %6, align 8
  %138 = load i32, ptr %16, align 4
  %139 = load i32, ptr %17, align 4
  %140 = load ptr, ptr %12, align 8
  %141 = call ptr @proto_tree_add_string(ptr noundef %130, i32 noundef %136, ptr noundef %137, i32 noundef %138, i32 noundef %139, ptr noundef %140)
  call void @llvm.lifetime.end.p0(i64 4, ptr %18) #4
  call void @llvm.lifetime.end.p0(i64 4, ptr %17) #4
  call void @llvm.lifetime.end.p0(i64 4, ptr %16) #4
  call void @llvm.lifetime.end.p0(i64 4, ptr %15) #4
  call void @llvm.lifetime.end.p0(i64 8, ptr %14) #4
  call void @llvm.lifetime.end.p0(i64 8, ptr %13) #4
  call void @llvm.lifetime.end.p0(i64 8, ptr %12) #4
  call void @llvm.lifetime.end.p0(i64 8, ptr %11) #4
  ret void
}