; Function Attrs: null_pointer_is_valid sspstrong uwtable
define internal void @dissect_cimd_ud(ptr noundef %0, ptr noundef %1, i32 noundef %2, i32 noundef %3, i32 noundef %4) #0 {
  %6 = alloca [4 x i8], align 1
  call void @llvm.lifetime.start.p0(i64 4, ptr nonnull %6) #4
  %7 = add i32 %3, 1
  %8 = sub i32 %4, %7
  %9 = sext i32 %2 to i64
  %10 = getelementptr [38 x %struct.cimd_parameter_t], ptr @vals_hdr_PC, i64 0, i64 %9
  %11 = getelementptr inbounds nuw i8, ptr %10, i64 8
  %12 = load ptr, ptr %11, align 8
  %13 = load i32, ptr %12, align 4
  %14 = getelementptr [38 x %struct._value_string], ptr @cimd_vals_PC, i64 0, i64 %9, i32 1
  %15 = load ptr, ptr %14, align 8
  %16 = tail call ptr @proto_tree_add_subtree(ptr noundef %1, ptr noundef %0, i32 noundef %7, i32 noundef %8, i32 noundef %13, ptr noundef null, ptr noundef %15)
  %17 = load i32, ptr @hf_cimd_pcode_indicator, align 4
  %18 = tail call ptr @proto_tree_add_item(ptr noundef %16, i32 noundef %17, ptr noundef %0, i32 noundef %7, i32 noundef 3, i32 noundef 0)
  %19 = add i32 %3, 5
  %20 = sub i32 %4, %19
  %21 = tail call ptr @tvb_get_ptr(ptr noundef %0, i32 noundef %19, i32 noundef %20)
  %22 = tail call ptr @wmem_packet_scope()
  %23 = add i32 %20, 1
  %24 = sext i32 %23 to i64
  %25 = tail call noalias ptr @wmem_strbuf_new_sized(ptr noundef %22, i64 noundef %24)
  %invariant.gep = getelementptr i8, ptr %21, i64 1
  %26 = icmp sgt i32 %20, 0
  br i1 %26, label %.lr.ph, label %._crit_edge

.lr.ph:                                           ; preds = %5
  %27 = add nsw i32 %20, -2
  %28 = getelementptr inbounds nuw i8, ptr %6, i64 1
  %29 = getelementptr inbounds nuw i8, ptr %6, i64 2
  %30 = getelementptr inbounds nuw i8, ptr %6, i64 3
  br label %31

31:                                               ; preds = %.lr.ph, %50
  %.045 = phi i32 [ 0, %.lr.ph ], [ %51, %50 ]
  %32 = sext i32 %.045 to i64
  %33 = getelementptr i8, ptr %21, i64 %32
  %34 = load i8, ptr %33, align 1
  %35 = icmp eq i8 %34, 95
  br i1 %35, label %36, label %46

36:                                               ; preds = %31
  %37 = icmp slt i32 %.045, %27
  br i1 %37, label %38, label %50

38:                                               ; preds = %36
  store i8 95, ptr %6, align 1
  %39 = add i32 %.045, 2
  %gep = getelementptr i8, ptr %invariant.gep, i64 %32
  %40 = load i8, ptr %gep, align 1
  store i8 %40, ptr %28, align 1
  %41 = sext i32 %39 to i64
  %42 = getelementptr i8, ptr %21, i64 %41
  %43 = load i8, ptr %42, align 1
  store i8 %43, ptr %29, align 1
  store i8 0, ptr %30, align 1
  %44 = call i32 @str_to_val(ptr noundef nonnull %6, ptr noundef nonnull @dissect_cimd_ud.combining_mapping, i32 noundef 255)
  %45 = trunc i32 %44 to i8
  br label %50

46:                                               ; preds = %31
  %47 = zext i8 %34 to i64
  %48 = getelementptr [256 x i8], ptr @dissect_cimd_ud.latin_mapping, i64 0, i64 %47
  %49 = load i8, ptr %48, align 1
  br label %50

50:                                               ; preds = %36, %46, %38
  %.sink = phi i8 [ %49, %46 ], [ %45, %38 ], [ -1, %36 ]
  %.1 = phi i32 [ %.045, %46 ], [ %39, %38 ], [ %.045, %36 ]
  call void @wmem_strbuf_append_c(ptr noundef %25, i8 noundef signext %.sink)
  %51 = add i32 %.1, 1
  %52 = icmp slt i32 %51, %20
  br i1 %52, label %31, label %._crit_edge, !llvm.loop !10

._crit_edge:                                      ; preds = %50, %5
  %53 = call ptr @wmem_packet_scope()
  %54 = call ptr @wmem_strbuf_get_str(ptr noundef %25)
  %55 = call i64 @wmem_strbuf_get_len(ptr noundef %25)
  %56 = trunc i64 %55 to i32
  %57 = call ptr @get_ts_23_038_7bits_string_unpacked(ptr noundef %53, ptr noundef %54, i32 noundef %56)
  call void @wmem_strbuf_destroy(ptr noundef %25)
  %58 = getelementptr inbounds nuw i8, ptr %10, i64 16
  %59 = load ptr, ptr %58, align 8
  %60 = load i32, ptr %59, align 4
  %61 = call ptr @proto_tree_add_string(ptr noundef %16, i32 noundef %60, ptr noundef %0, i32 noundef %19, i32 noundef %20, ptr noundef %57)
  call void @llvm.lifetime.end.p0(i64 4, ptr nonnull %6) #4
  ret void
}